target datalayout = "e-m:e-p270:32:32-p271:32:32-p272:64:64-i64:64-i128:128-f80:128-n8:16:32:64-S128"
target triple = "x86_64-pc-linux-gnu"

%struct.redisServer = type { i32, i64, ptr, ptr, ptr, i32, i32, i32, i32, i32, ptr, ptr, ptr, ptr, ptr, i32, i32, i32, i32, i64, i32, i32, i32, i32, ptr, i32, i32, [41 x i8], i32, i64, i32, i32, i32, ptr, ptr, i32, i32, i64, ptr, ptr, ptr, ptr, [2 x i32], i32, i32, i32, i32, i32, i32, [16 x ptr], i32, ptr, ptr, i32, [8 x %struct.connListener], i32, %struct.connListener, ptr, ptr, ptr, ptr, ptr, ptr, ptr, ptr, ptr, ptr, i32, ptr, i32, ptr, [3 x %struct.pause_event], [256 x i8], ptr, i64, i32, i32, [128 x i32], i32, i32, i64, i32, i32, i32, i32, i32, i64, i64, i64, i64, i64, i64, i64, i64, i64, i64, double, i64, i64, i64, i64, i64, i64, i64, i64, i64, i64, i64, i64, i64, i64, i64, i64, i64, i64, i64, i64, i64, double, i64, i64, i64, i64, i64, ptr, i64, i64, i64, %struct.malloc_stats, i64, i64, i64, i64, i64, i64, i64, i64, i64, i64, i64, i64, double, [4 x i64], i64, i64, i64, i64, [128 x i64], [128 x i64], i64, i64, [7 x %struct.anon], i64, i64, i64, i64, i64, i64, [4 x %struct.durationStats], i32, i32, i32, i32, i32, i32, i32, i32, i32, i32, i32, i32, i64, i32, i32, i32, i32, i64, i64, i32, i32, i32, i32, i32, ptr, [3 x %struct.clientBufferLimitsConfig], i32, i32, i32, ptr, i32, i32, i32, i32, i32, i32, ptr, ptr, i32, i32, i64, i64, i64, i64, i64, i32, i32, ptr, i32, i32, i64, i64, i64, i64, i64, i32, i32, i64, i32, i32, i32, i32, i32, i32, i32, i32, ptr, i32, i64, i64, i64, i64, i32, ptr, i32, ptr, i32, i32, i32, i64, i64, i64, i64, i32, i32, i32, i32, i32, i32, ptr, i32, i32, ptr, i32, i32, i32, [2 x i32], i32, %struct.redisOpArray, i32, ptr, i32, ptr, i32, i32, i32, i32, i32, i32, i32, [41 x i8], [41 x i8], i64, i64, i64, i64, i32, i32, ptr, i64, i64, %struct.replDataBuf, i64, i64, i32, i32, i32, i32, i32, i32, i32, i32, i32, i64, ptr, i64, ptr, ptr, ptr, i32, i32, ptr, ptr, i32, i32, i32, i64, i64, i64, i64, ptr, ptr, i32, ptr, i64, i32, i32, i32, i64, i32, i32, i32, i32, ptr, i32, i32, [41 x i8], i64, i32, ptr, i32, i32, i64, i64, i32, i32, i32, i32, i32, i64, [3 x i32], i32, i32, i32, [10 x i32], ptr, ptr, i32, i64, ptr, ptr, i32, i32, i32, i32, i64, i64, i64, i64, i64, i64, i64, i64, i64, i64, i32, i32, i64, i64, i32, i64, i64, i64, i64, i64, ptr, ptr, i32, ptr, i32, i32, i32, i32, i64, i64, ptr, ptr, i32, i32, i32, i32, i32, ptr, ptr, ptr, i32, i32, i32, i32, i32, i32, i32, i64, i32, i32, i64, i32, i32, i32, i32, i32, i32, i32, i64, ptr, ptr, i64, ptr, i32, %struct.aclInfo, i32, i64, i32, i32, i32, %struct.redisTLSContextConfig, ptr, ptr, ptr, ptr, ptr, i64, i32, ptr, i32, i32, i32, i64, i32, ptr }
%struct.connListener = type { [16 x i32], i32, ptr, i32, i32, ptr, ptr }
%struct.pause_event = type { i32, i64 }
%struct.malloc_stats = type { i64, i64, i64, i64, i64, i64, i64, i64, i64, i64, i64 }
%struct.anon = type { i64, i64, [16 x i64], i32 }
%struct.durationStats = type { i64, i64, i64 }
%struct.clientBufferLimitsConfig = type { i64, i64, i64 }
%struct.redisOpArray = type { ptr, i32, i32 }
%struct.replDataBuf = type { ptr, i64, i64, i64, i64 }
%struct.aclInfo = type { i64, i64, i64, i64 }
%struct.redisTLSContextConfig = type { ptr, ptr, ptr, ptr, ptr, ptr, ptr, ptr, ptr, ptr, ptr, ptr, i32, i32, i32, i32 }
%struct.clusterState = type { ptr, i64, i32, i32, ptr, ptr, ptr, [16384 x ptr], [16384 x ptr], [16384 x ptr], [40 x i8], i64, i32, i32, i32, i64, i32, i64, ptr, i64, i32, i64, i32, [11 x i64], [11 x i64], i64, i64, [2048 x i8] }

@myself = dso_local global ptr null, align 8
@server = external global %struct.redisServer, align 8
@.str.18 = private unnamed_addr constant [17 x i8] c"cluster_legacy.c\00", align 1
@.str.193 = private unnamed_addr constant [15 x i8] c"retval == C_OK\00", align 1

; Function Attrs: nounwind uwtable
define dso_local i32 @clusterAddSlot(ptr noundef %0, i32 noundef %1) #0 {
  %3 = alloca i32, align 4
  %4 = alloca ptr, align 8
  %5 = alloca i32, align 4
  store ptr %0, ptr %4, align 8, !tbaa !5
  store i32 %1, ptr %5, align 4, !tbaa !46
  %6 = load ptr, ptr getelementptr inbounds nuw (%struct.redisServer, ptr @server, i32 0, i32 385), align 8, !tbaa !57
  %7 = getelementptr inbounds nuw %struct.clusterState, ptr %6, i32 0, i32 9
  %8 = load i32, ptr %5, align 4, !tbaa !46
  %9 = sext i32 %8 to i64
  %10 = getelementptr inbounds [16384 x ptr], ptr %7, i64 0, i64 %9
  %11 = load ptr, ptr %10, align 8, !tbaa !5
  %12 = icmp ne ptr %11, null
  br i1 %12, label %13, label %14

13:                                               ; preds = %2
  store i32 -1, ptr %3, align 4
  br label %24

14:                                               ; preds = %2
  %15 = load ptr, ptr %4, align 8, !tbaa !5
  %16 = load i32, ptr %5, align 4, !tbaa !46
  %17 = call i32 @clusterNodeSetSlotBit(ptr noundef %15, i32 noundef %16)
  %18 = load ptr, ptr %4, align 8, !tbaa !5
  %19 = load ptr, ptr getelementptr inbounds nuw (%struct.redisServer, ptr @server, i32 0, i32 385), align 8, !tbaa !57
  %20 = getelementptr inbounds nuw %struct.clusterState, ptr %19, i32 0, i32 9
  %21 = load i32, ptr %5, align 4, !tbaa !46
  %22 = sext i32 %21 to i64
  %23 = getelementptr inbounds [16384 x ptr], ptr %20, i64 0, i64 %22
  store ptr %18, ptr %23, align 8, !tbaa !5
  store i32 0, ptr %3, align 4
  br label %24

24:                                               ; preds = %14, %13
  %25 = load i32, ptr %3, align 4
  ret i32 %25
}

; Function Attrs: nounwind uwtable
define dso_local void @clusterUpdateSlots(ptr noundef %0, ptr noundef %1, i32 noundef %2) #0 {
  %4 = alloca ptr, align 8
  %5 = alloca ptr, align 8
  %6 = alloca i32, align 4
  %7 = alloca i32, align 4
  %8 = alloca i32, align 4
  store ptr %0, ptr %4, align 8, !tbaa !119
  store ptr %1, ptr %5, align 8, !tbaa !52
  store i32 %2, ptr %6, align 4, !tbaa !46
  call void @llvm.lifetime.start.p0(i64 4, ptr %7) #16
  store i32 0, ptr %7, align 4, !tbaa !46
  br label %9

9:                                                ; preds = %59, %3
  %10 = load i32, ptr %7, align 4, !tbaa !46
  %11 = icmp slt i32 %10, 16384
  br i1 %11, label %12, label %62

12:                                               ; preds = %9
  %13 = load ptr, ptr %5, align 8, !tbaa !52
  %14 = load i32, ptr %7, align 4, !tbaa !46
  %15 = sext i32 %14 to i64
  %16 = getelementptr inbounds i8, ptr %13, i64 %15
  %17 = load i8, ptr %16, align 1, !tbaa !54
  %18 = icmp ne i8 %17, 0
  br i1 %18, label %19, label %58

19:                                               ; preds = %12
  call void @llvm.lifetime.start.p0(i64 4, ptr %8) #16
  %20 = load ptr, ptr getelementptr inbounds nuw (%struct.redisServer, ptr @server, i32 0, i32 385), align 8, !tbaa !57
  %21 = getelementptr inbounds nuw %struct.clusterState, ptr %20, i32 0, i32 8
  %22 = load i32, ptr %7, align 4, !tbaa !46
  %23 = sext i32 %22 to i64
  %24 = getelementptr inbounds [16384 x ptr], ptr %21, i64 0, i64 %23
  %25 = load ptr, ptr %24, align 8, !tbaa !5
  %26 = icmp ne ptr %25, null
  br i1 %26, label %27, label %33

27:                                               ; preds = %19
  %28 = load ptr, ptr getelementptr inbounds nuw (%struct.redisServer, ptr @server, i32 0, i32 385), align 8, !tbaa !57
  %29 = getelementptr inbounds nuw %struct.clusterState, ptr %28, i32 0, i32 8
  %30 = load i32, ptr %7, align 4, !tbaa !46
  %31 = sext i32 %30 to i64
  %32 = getelementptr inbounds [16384 x ptr], ptr %29, i64 0, i64 %31
  store ptr null, ptr %32, align 8, !tbaa !5
  br label %33

33:                                               ; preds = %27, %19
  %34 = load i32, ptr %6, align 4, !tbaa !46
  %35 = icmp ne i32 %34, 0
  br i1 %35, label %36, label %39

36:                                               ; preds = %33
  %37 = load i32, ptr %7, align 4, !tbaa !46
  %38 = call i32 @clusterDelSlot(i32 noundef %37)
  br label %43

39:                                               ; preds = %33
  %40 = load ptr, ptr @myself, align 8, !tbaa !5
  %41 = load i32, ptr %7, align 4, !tbaa !46
  %42 = call i32 @clusterAddSlot(ptr noundef %40, i32 noundef %41)
  br label %43

43:                                               ; preds = %39, %36
  %44 = phi i32 [ %38, %36 ], [ %42, %39 ]
  store i32 %44, ptr %8, align 4, !tbaa !46
  %45 = load i32, ptr %8, align 4, !tbaa !46
  %46 = icmp eq i32 %45, 0
  %47 = xor i1 %46, true
  %48 = xor i1 %47, true
  %49 = zext i1 %48 to i32
  %50 = sext i32 %49 to i64
  %51 = call i64 @llvm.expect.i64(i64 %50, i64 1)
  %52 = icmp ne i64 %51, 0
  br i1 %52, label %53, label %54

53:                                               ; preds = %43
  br label %57

54:                                               ; preds = %43
  %55 = load ptr, ptr %4, align 8, !tbaa !119
  call void @_serverAssertWithInfo(ptr noundef %55, ptr noundef null, ptr noundef @.str.193, ptr noundef @.str.18, i32 noundef 5634)
  call void @abort() #18
  unreachable

56:                                               ; No predecessors!
  br label %57

57:                                               ; preds = %56, %53
  call void @llvm.lifetime.end.p0(i64 4, ptr %8) #16
  br label %58

58:                                               ; preds = %57, %12
  br label %59

59:                                               ; preds = %58
  %60 = load i32, ptr %7, align 4, !tbaa !46
  %61 = add nsw i32 %60, 1
  store i32 %61, ptr %7, align 4, !tbaa !46
  br label %9, !llvm.loop !339

62:                                               ; preds = %9
  call void @llvm.lifetime.end.p0(i64 4, ptr %7) #16
  ret void
}