; Function Attrs: nounwind uwtable
define dso_local void @clusterUpdateSlots(ptr noundef %0, ptr noundef readonly captures(none) %1, i32 noundef %2) local_unnamed_addr #3 {
  %.not11 = icmp eq i32 %2, 0
  br i1 %.not11, label %.split.us, label %.split

.split.us:                                        ; preds = %3, %22
  %indvars.iv19 = phi i64 [ %indvars.iv.next20, %22 ], [ 0, %3 ]
  %4 = getelementptr inbounds nuw i8, ptr %1, i64 %indvars.iv19
  %5 = load i8, ptr %4, align 1, !tbaa !50
  %.not.us = icmp eq i8 %5, 0
  br i1 %.not.us, label %22, label %6

6:                                                ; preds = %.split.us
  %7 = load ptr, ptr getelementptr inbounds nuw (i8, ptr @server, i64 7920), align 8, !tbaa !56
  %8 = getelementptr inbounds nuw i8, ptr %7, i64 131120
  %9 = getelementptr inbounds nuw [16384 x ptr], ptr %8, i64 0, i64 %indvars.iv19
  %10 = load ptr, ptr %9, align 8, !tbaa !46
  %.not10.us = icmp eq ptr %10, null
  br i1 %.not10.us, label %12, label %11

11:                                               ; preds = %6
  store ptr null, ptr %9, align 8, !tbaa !46
  br label %12

12:                                               ; preds = %11, %6
  %13 = getelementptr inbounds nuw i8, ptr %7, i64 262192
  %14 = getelementptr inbounds nuw [16384 x ptr], ptr %13, i64 0, i64 %indvars.iv19
  %15 = load ptr, ptr %14, align 8, !tbaa !46
  %.not.i.us = icmp eq ptr %15, null
  br i1 %.not.i.us, label %clusterAddSlot.exit.thread.us, label %clusterAddSlot.exit.thread12

clusterAddSlot.exit.thread.us:                    ; preds = %12
  %16 = load ptr, ptr @myself, align 8, !tbaa !46
  %17 = trunc nuw nsw i64 %indvars.iv19 to i32
  %18 = tail call i32 @clusterNodeSetSlotBit(ptr noundef %16, i32 noundef %17)
  %19 = load ptr, ptr getelementptr inbounds nuw (i8, ptr @server, i64 7920), align 8, !tbaa !56
  %20 = getelementptr inbounds nuw i8, ptr %19, i64 262192
  %21 = getelementptr inbounds nuw [16384 x ptr], ptr %20, i64 0, i64 %indvars.iv19
  store ptr %16, ptr %21, align 8, !tbaa !46
  br label %22

22:                                               ; preds = %clusterAddSlot.exit.thread.us, %.split.us
  %indvars.iv.next20 = add nuw nsw i64 %indvars.iv19, 1
  %exitcond22.not = icmp eq i64 %indvars.iv.next20, 16384
  br i1 %exitcond22.not, label %.split15.us, label %.split.us, !llvm.loop !305

.split:                                           ; preds = %3, %34
  %indvars.iv = phi i64 [ %indvars.iv.next, %34 ], [ 0, %3 ]
  %23 = getelementptr inbounds nuw i8, ptr %1, i64 %indvars.iv
  %24 = load i8, ptr %23, align 1, !tbaa !50
  %.not = icmp eq i8 %24, 0
  br i1 %.not, label %34, label %25

25:                                               ; preds = %.split
  %26 = load ptr, ptr getelementptr inbounds nuw (i8, ptr @server, i64 7920), align 8, !tbaa !56
  %27 = getelementptr inbounds nuw i8, ptr %26, i64 131120
  %28 = getelementptr inbounds nuw [16384 x ptr], ptr %27, i64 0, i64 %indvars.iv
  %29 = load ptr, ptr %28, align 8, !tbaa !46
  %.not10 = icmp eq ptr %29, null
  br i1 %.not10, label %clusterAddSlot.exit, label %30

30:                                               ; preds = %25
  store ptr null, ptr %28, align 8, !tbaa !46
  br label %clusterAddSlot.exit

clusterAddSlot.exit:                              ; preds = %30, %25
  %31 = trunc nuw nsw i64 %indvars.iv to i32
  %32 = tail call i32 @clusterDelSlot(i32 noundef %31)
  %33 = icmp eq i32 %32, 0
  br i1 %33, label %34, label %clusterAddSlot.exit.thread12, !prof !306

clusterAddSlot.exit.thread12:                     ; preds = %clusterAddSlot.exit, %12
  tail call void @_serverAssertWithInfo(ptr noundef %0, ptr noundef null, ptr noundef nonnull @.str.193, ptr noundef nonnull @.str.18, i32 noundef 5634) #33
  tail call void @abort() #35
  unreachable

34:                                               ; preds = %clusterAddSlot.exit, %.split
  %indvars.iv.next = add nuw nsw i64 %indvars.iv, 1
  %exitcond.not = icmp eq i64 %indvars.iv.next, 16384
  br i1 %exitcond.not, label %.split15.us, label %.split, !llvm.loop !305

.split15.us:                                      ; preds = %34, %22
  ret void
}